target datalayout = "e-m:e-p270:32:32-p271:32:32-p272:64:64-i64:64-i128:128-f80:128-n8:16:32:64-S128"
target triple = "x86_64-pc-linux-gnu"

; Function Attrs: nounwind uwtable
define i32 @BIO_write_ex(ptr noundef %0, ptr noundef %1, i64 noundef %2, ptr noundef %3) #0 {
  %5 = alloca ptr, align 8
  %6 = alloca ptr, align 8
  %7 = alloca i64, align 8
  %8 = alloca ptr, align 8
  store ptr %0, ptr %5, align 8, !tbaa !10
  store ptr %1, ptr %6, align 8, !tbaa !25
  store i64 %2, ptr %7, align 8, !tbaa !34
  store ptr %3, ptr %8, align 8, !tbaa !35
  %9 = load ptr, ptr %5, align 8, !tbaa !10
  %10 = load ptr, ptr %6, align 8, !tbaa !25
  %11 = load i64, ptr %7, align 8, !tbaa !34
  %12 = load ptr, ptr %8, align 8, !tbaa !35
  %13 = call i32 @bio_write_intern(ptr noundef %9, ptr noundef %10, i64 noundef %11, ptr noundef %12)
  %14 = icmp sgt i32 %13, 0
  br i1 %14, label %23, label %15

15:                                               ; preds = %4
  %16 = load ptr, ptr %5, align 8, !tbaa !10
  %17 = icmp ne ptr %16, null
  br i1 %17, label %18, label %21

18:                                               ; preds = %15
  %19 = load i64, ptr %7, align 8, !tbaa !34
  %20 = icmp eq i64 %19, 0
  br label %21

21:                                               ; preds = %18, %15
  %22 = phi i1 [ false, %15 ], [ %20, %18 ]
  br label %23

23:                                               ; preds = %21, %4
  %24 = phi i1 [ true, %4 ], [ %22, %21 ]
  %25 = zext i1 %24 to i32
  ret i32 %25
}